target datalayout = "e-m:e-p270:32:32-p271:32:32-p272:64:64-i64:64-f80:128-n8:16:32:64-S128"
target triple = "x86_64-pc-linux-gnu"

@.str = private unnamed_addr constant [5 x i8] c"%d%s\00", align 1
@.str.1 = private unnamed_addr constant [3 x i8] c"NO\00", align 1
@.str.2 = private unnamed_addr constant [4 x i8] c"%d\0A\00", align 1
@.str.3 = private unnamed_addr constant [3 x i8] c"%c\00", align 1
@.str.4 = private unnamed_addr constant [2 x i8] c"\0A\00", align 1

; Function Attrs: noinline nounwind uwtable
define dso_local i32 @main() #0 {
  %1 = alloca i32, align 4
  %2 = alloca [500 x i8], align 16
  %3 = alloca [500 x [6 x i8]], align 16
  %4 = alloca i32, align 4
  %5 = alloca i32, align 4
  %6 = alloca i32, align 4
  %7 = alloca [500 x i32], align 16
  %8 = alloca i32, align 4
  %9 = alloca i32, align 4
  store i32 0, i32* %1, align 4
  store i32 1, i32* %9, align 4
  %10 = getelementptr inbounds [500 x i8], [500 x i8]* %2, i64 0, i64 0
  %11 = call i32 (i8*, ...) @__isoc99_scanf(i8* getelementptr inbounds ([5 x i8], [5 x i8]* @.str, i64 0, i64 0), i32* %4, i8* %10)
  %12 = getelementptr inbounds [500 x i8], [500 x i8]* %2, i64 0, i64 0
  %13 = call i64 @strlen(i8* %12) #3
  %14 = trunc i64 %13 to i32
  store i32 %14, i32* %8, align 4
  store i32 0, i32* %5, align 4
  br label %15

15:                                               ; preds = %59, %0
  %16 = load i32, i32* %5, align 4
  %17 = load i32, i32* %8, align 4
  %18 = load i32, i32* %4, align 4
  %19 = sub nsw i32 %17, %18
  %20 = add nsw i32 %19, 1
  %21 = icmp slt i32 %16, %20
  br i1 %21, label %22, label %62

22:                                               ; preds = %15
  store i32 0, i32* %6, align 4
  br label %23

23:                                               ; preds = %40, %22
  %24 = load i32, i32* %6, align 4
  %25 = load i32, i32* %4, align 4
  %26 = icmp slt i32 %24, %25
  br i1 %26, label %27, label %43

27:                                               ; preds = %23
  %28 = load i32, i32* %5, align 4
  %29 = load i32, i32* %6, align 4
  %30 = add nsw i32 %28, %29
  %31 = sext i32 %30 to i64
  %32 = getelementptr inbounds [500 x i8], [500 x i8]* %2, i64 0, i64 %31
  %33 = load i8, i8* %32, align 1
  %34 = load i32, i32* %5, align 4
  %35 = sext i32 %34 to i64
  %36 = getelementptr inbounds [500 x [6 x i8]], [500 x [6 x i8]]* %3, i64 0, i64 %35
  %37 = load i32, i32* %6, align 4
  %38 = sext i32 %37 to i64
  %39 = getelementptr inbounds [6 x i8], [6 x i8]* %36, i64 0, i64 %38
  store i8 %33, i8* %39, align 1
  br label %40

40:                                               ; preds = %27
  %41 = load i32, i32* %6, align 4
  %42 = add nsw i32 %41, 1
  store i32 %42, i32* %6, align 4
  br label %23

43:                                               ; preds = %23
  %44 = load i32, i32* %4, align 4
  store i32 %44, i32* %6, align 4
  br label %45

45:                                               ; preds = %55, %43
  %46 = load i32, i32* %6, align 4
  %47 = icmp slt i32 %46, 6
  br i1 %47, label %48, label %58

48:                                               ; preds = %45
  %49 = load i32, i32* %5, align 4
  %50 = sext i32 %49 to i64
  %51 = getelementptr inbounds [500 x [6 x i8]], [500 x [6 x i8]]* %3, i64 0, i64 %50
  %52 = load i32, i32* %6, align 4
  %53 = sext i32 %52 to i64
  %54 = getelementptr inbounds [6 x i8], [6 x i8]* %51, i64 0, i64 %53
  store i8 0, i8* %54, align 1
  br label %55

55:                                               ; preds = %48
  %56 = load i32, i32* %6, align 4
  %57 = add nsw i32 %56, 1
  store i32 %57, i32* %6, align 4
  br label %45

58:                                               ; preds = %45
  br label %59

59:                                               ; preds = %58
  %60 = load i32, i32* %5, align 4
  %61 = add nsw i32 %60, 1
  store i32 %61, i32* %5, align 4
  br label %15

62:                                               ; preds = %15
  store i32 0, i32* %5, align 4
  br label %63

63:                                               ; preds = %74, %62
  %64 = load i32, i32* %5, align 4
  %65 = load i32, i32* %8, align 4
  %66 = load i32, i32* %4, align 4
  %67 = sub nsw i32 %65, %66
  %68 = add nsw i32 %67, 1
  %69 = icmp slt i32 %64, %68
  br i1 %69, label %70, label %77

70:                                               ; preds = %63
  %71 = load i32, i32* %5, align 4
  %72 = sext i32 %71 to i64
  %73 = getelementptr inbounds [500 x i32], [500 x i32]* %7, i64 0, i64 %72
  store i32 0, i32* %73, align 4
  br label %74

74:                                               ; preds = %70
  %75 = load i32, i32* %5, align 4
  %76 = add nsw i32 %75, 1
  store i32 %76, i32* %5, align 4
  br label %63

77:                                               ; preds = %63
  store i32 0, i32* %5, align 4
  br label %78

78:                                               ; preds = %127, %77
  %79 = load i32, i32* %5, align 4
  %80 = load i32, i32* %8, align 4
  %81 = load i32, i32* %4, align 4
  %82 = sub nsw i32 %80, %81
  %83 = icmp slt i32 %79, %82
  br i1 %83, label %84, label %130

84:                                               ; preds = %78
  %85 = load i32, i32* %5, align 4
  store i32 %85, i32* %6, align 4
  br label %86

86:                                               ; preds = %111, %84
  %87 = load i32, i32* %6, align 4
  %88 = load i32, i32* %8, align 4
  %89 = load i32, i32* %4, align 4
  %90 = sub nsw i32 %88, %89
  %91 = add nsw i32 %90, 1
  %92 = icmp slt i32 %87, %91
  br i1 %92, label %93, label %114

93:                                               ; preds = %86
  %94 = load i32, i32* %5, align 4
  %95 = sext i32 %94 to i64
  %96 = getelementptr inbounds [500 x [6 x i8]], [500 x [6 x i8]]* %3, i64 0, i64 %95
  %97 = getelementptr inbounds [6 x i8], [6 x i8]* %96, i64 0, i64 0
  %98 = load i32, i32* %6, align 4
  %99 = sext i32 %98 to i64
  %100 = getelementptr inbounds [500 x [6 x i8]], [500 x [6 x i8]]* %3, i64 0, i64 %99
  %101 = getelementptr inbounds [6 x i8], [6 x i8]* %100, i64 0, i64 0
  %102 = call i32 @strcmp(i8* %97, i8* %101) #3
  %103 = icmp eq i32 %102, 0
  br i1 %103, label %104, label %110

104:                                              ; preds = %93
  %105 = load i32, i32* %5, align 4
  %106 = sext i32 %105 to i64
  %107 = getelementptr inbounds [500 x i32], [500 x i32]* %7, i64 0, i64 %106
  %108 = load i32, i32* %107, align 4
  %109 = add nsw i32 %108, 1
  store i32 %109, i32* %107, align 4
  br label %110

110:                                              ; preds = %104, %93
  br label %111

111:                                              ; preds = %110
  %112 = load i32, i32* %6, align 4
  %113 = add nsw i32 %112, 1
  store i32 %113, i32* %6, align 4
  br label %86

114:                                              ; preds = %86
  %115 = load i32, i32* %5, align 4
  %116 = sext i32 %115 to i64
  %117 = getelementptr inbounds [500 x i32], [500 x i32]* %7, i64 0, i64 %116
  %118 = load i32, i32* %117, align 4
  %119 = load i32, i32* %9, align 4
  %120 = icmp sgt i32 %118, %119
  br i1 %120, label %121, label %126

121:                                              ; preds = %114
  %122 = load i32, i32* %5, align 4
  %123 = sext i32 %122 to i64
  %124 = getelementptr inbounds [500 x i32], [500 x i32]* %7, i64 0, i64 %123
  %125 = load i32, i32* %124, align 4
  store i32 %125, i32* %9, align 4
  br label %126

126:                                              ; preds = %121, %114
  br label %127

127:                                              ; preds = %126
  %128 = load i32, i32* %5, align 4
  %129 = add nsw i32 %128, 1
  store i32 %129, i32* %5, align 4
  br label %78

130:                                              ; preds = %78
  %131 = load i32, i32* %9, align 4
  %132 = icmp eq i32 %131, 1
  br i1 %132, label %133, label %135

133:                                              ; preds = %130
  %134 = call i32 (i8*, ...) @printf(i8* getelementptr inbounds ([3 x i8], [3 x i8]* @.str.1, i64 0, i64 0))
  br label %177

135:                                              ; preds = %130
  %136 = load i32, i32* %9, align 4
  %137 = call i32 (i8*, ...) @printf(i8* getelementptr inbounds ([4 x i8], [4 x i8]* @.str.2, i64 0, i64 0), i32 %136)
  store i32 0, i32* %5, align 4
  br label %138

138:                                              ; preds = %173, %135
  %139 = load i32, i32* %5, align 4
  %140 = load i32, i32* %8, align 4
  %141 = load i32, i32* %4, align 4
  %142 = sub nsw i32 %140, %141
  %143 = add nsw i32 %142, 1
  %144 = icmp slt i32 %139, %143
  br i1 %144, label %145, label %176

145:                                              ; preds = %138
  %146 = load i32, i32* %5, align 4
  %147 = sext i32 %146 to i64
  %148 = getelementptr inbounds [500 x i32], [500 x i32]* %7, i64 0, i64 %147
  %149 = load i32, i32* %148, align 4
  %150 = load i32, i32* %9, align 4
  %151 = icmp eq i32 %149, %150
  br i1 %151, label %152, label %172

152:                                              ; preds = %145
  store i32 0, i32* %6, align 4
  br label %153

153:                                              ; preds = %167, %152
  %154 = load i32, i32* %6, align 4
  %155 = load i32, i32* %4, align 4
  %156 = icmp slt i32 %154, %155
  br i1 %156, label %157, label %170

157:                                              ; preds = %153
  %158 = load i32, i32* %5, align 4
  %159 = sext i32 %158 to i64
  %160 = getelementptr inbounds [500 x [6 x i8]], [500 x [6 x i8]]* %3, i64 0, i64 %159
  %161 = load i32, i32* %6, align 4
  %162 = sext i32 %161 to i64
  %163 = getelementptr inbounds [6 x i8], [6 x i8]* %160, i64 0, i64 %162
  %164 = load i8, i8* %163, align 1
  %165 = sext i8 %164 to i32
  %166 = call i32 (i8*, ...) @printf(i8* getelementptr inbounds ([3 x i8], [3 x i8]* @.str.3, i64 0, i64 0), i32 %165)
  br label %167

167:                                              ; preds = %157
  %168 = load i32, i32* %6, align 4
  %169 = add nsw i32 %168, 1
  store i32 %169, i32* %6, align 4
  br label %153

170:                                              ; preds = %153
  %171 = call i32 (i8*, ...) @printf(i8* getelementptr inbounds ([2 x i8], [2 x i8]* @.str.4, i64 0, i64 0))
  br label %172

172:                                              ; preds = %170, %145
  br label %173

173:                                              ; preds = %172
  %174 = load i32, i32* %5, align 4
  %175 = add nsw i32 %174, 1
  store i32 %175, i32* %5, align 4
  br label %138

176:                                              ; preds = %138
  br label %177

177:                                              ; preds = %176, %133
  ret i32 0
}